target datalayout = "e-m:e-p270:32:32-p271:32:32-p272:64:64-i64:64-i128:128-f80:128-n8:16:32:64-S128"
target triple = "x86_64-pc-linux-gnu"

%struct.TT_FaceRec_ = type { %struct.FT_FaceRec_, %struct.TTC_HeaderRec_, i64, i16, ptr, %struct.TT_Header_, %struct.TT_HoriHeader_, %struct.TT_MaxProfile_, i8, %struct.TT_VertHeader_, i16, %struct.TT_NameTableRec_, %struct.TT_OS2_, %struct.TT_Postscript_, ptr, i64, ptr, ptr, ptr, ptr, ptr, ptr, ptr, ptr, ptr, ptr, ptr, ptr, %struct.TT_Gasp_, %struct.TT_PCLT_, i64, ptr, %struct.TT_Post_NamesRec_, %struct.FT_Palette_Data_, i16, ptr, i8, %struct.FT_Color_, i64, ptr, i64, ptr, i64, ptr, ptr, %struct.FT_Generic_, ptr, i64, i64, i8, i8, ptr, i32, ptr, i32, i32, ptr, i64, i64, i64, ptr, ptr, i64, i32, i64, ptr, ptr, i64, i32, i32, ptr, ptr, i64, i32, i32, i32, %struct.TT_BDFRec_, i64, i64, i64, i64, ptr, ptr, ptr }
%struct.FT_FaceRec_ = type { i64, i64, i64, i64, i64, ptr, ptr, i32, ptr, i32, ptr, %struct.FT_Generic_, %struct.FT_BBox_, i16, i16, i16, i16, i16, i16, i16, i16, ptr, ptr, ptr, ptr, ptr, ptr, %struct.FT_ListRec_, %struct.FT_Generic_, ptr, ptr }
%struct.FT_BBox_ = type { i64, i64, i64, i64 }
%struct.FT_ListRec_ = type { ptr, ptr }
%struct.TTC_HeaderRec_ = type { i64, i64, i64, ptr }
%struct.TT_Header_ = type { i64, i64, i64, i64, i16, i16, [2 x i64], [2 x i64], i16, i16, i16, i16, i16, i16, i16, i16, i16 }
%struct.TT_HoriHeader_ = type { i64, i16, i16, i16, i16, i16, i16, i16, i16, i16, i16, [4 x i16], i16, i16, ptr, ptr }
%struct.TT_MaxProfile_ = type { i64, i16, i16, i16, i16, i16, i16, i16, i16, i16, i16, i16, i16, i16, i16 }
%struct.TT_VertHeader_ = type { i64, i16, i16, i16, i16, i16, i16, i16, i16, i16, i16, [4 x i16], i16, i16, ptr, ptr }
%struct.TT_NameTableRec_ = type { i16, i32, i32, ptr, i32, ptr, ptr }
%struct.TT_OS2_ = type { i16, i16, i16, i16, i16, i16, i16, i16, i16, i16, i16, i16, i16, i16, i16, i16, [10 x i8], i64, i64, i64, i64, [4 x i8], i16, i16, i16, i16, i16, i16, i16, i16, i64, i64, i16, i16, i16, i16, i16, i16, i16 }
%struct.TT_Postscript_ = type { i64, i64, i16, i16, i64, i64, i64, i64, i64 }
%struct.TT_Gasp_ = type { i16, i16, ptr }
%struct.TT_PCLT_ = type { i64, i64, i16, i16, i16, i16, i16, i16, [16 x i8], [8 x i8], [6 x i8], i8, i8, i8, i8 }
%struct.TT_Post_NamesRec_ = type { i8, i16, i16, ptr, ptr }
%struct.FT_Palette_Data_ = type { i16, ptr, ptr, i16, ptr }
%struct.FT_Color_ = type { i8, i8, i8, i8 }
%struct.FT_Generic_ = type { ptr, ptr }
%struct.TT_BDFRec_ = type { ptr, ptr, ptr, i64, i32, i8 }
%struct.CFF_FontRec_ = type { ptr, ptr, ptr, i64, i32, i32, i8, i8, i8, i32, i8, %struct.CFF_IndexRec_, %struct.CFF_IndexRec_, %struct.CFF_IndexRec_, %struct.CFF_EncodingRec_, %struct.CFF_CharsetRec_, %struct.CFF_IndexRec_, %struct.CFF_IndexRec_, %struct.CFF_IndexRec_, %struct.CFF_IndexRec_, ptr, ptr, i32, ptr, ptr, i64, %struct.CFF_SubFontRec_, i32, [256 x ptr], %struct.CFF_FDSelectRec_, ptr, ptr, ptr, ptr, ptr, ptr, %struct.FT_Generic_, %struct.CFF_VStoreRec_, ptr }
%struct.CFF_EncodingRec_ = type { i32, i64, i32, [256 x i16], [256 x i16] }
%struct.CFF_CharsetRec_ = type { i32, i64, ptr, ptr, i32, i32 }
%struct.CFF_IndexRec_ = type { ptr, i64, i32, i32, i8, i64, i64, ptr, ptr }
%struct.CFF_SubFontRec_ = type { %struct.CFF_FontRecDictRec_, %struct.CFF_PrivateRec_, %struct.CFF_BlendRec_, i32, ptr, ptr, ptr, i32, i32, %struct.CFF_IndexRec_, ptr, i32 }
%struct.CFF_FontRecDictRec_ = type { i32, i32, i32, i32, i32, i32, i8, i64, i64, i64, i32, i32, %struct.FT_Matrix_, i8, i64, %struct.FT_Vector_, i64, %struct.FT_BBox_, i64, i64, i64, i64, i64, i64, i64, i32, i32, i32, i64, i64, i64, i64, i64, i64, i64, i64, i32, i16, i16, i64, i32 }
%struct.FT_Matrix_ = type { i64, i64, i64, i64 }
%struct.FT_Vector_ = type { i64, i64 }
%struct.CFF_PrivateRec_ = type { i8, i8, i8, i8, [14 x i64], [10 x i64], [14 x i64], [10 x i64], i64, i64, i64, i64, i64, i8, i8, [13 x i64], [13 x i64], i8, i64, i32, i32, i64, i64, i64, i64, i64, i32, ptr }
%struct.CFF_BlendRec_ = type { i8, i8, ptr, i32, i32, ptr, i32, ptr }
%struct.CFF_FDSelectRec_ = type { i8, i32, ptr, i32, i32, i32, i8 }
%struct.CFF_VStoreRec_ = type { i32, ptr, i16, i32, ptr }
%struct.FT_Service_PsCMapsRec_ = type { ptr, ptr, ptr, ptr, ptr, ptr, ptr, ptr }
%struct.PS_FontExtraRec_ = type { i16 }

@.str.13 = private unnamed_addr constant [8 x i8] c"/FSType\00", align 1
@.str.14 = private unnamed_addr constant [4 x i8] c"def\00", align 1

; Function Attrs: nounwind uwtable
define internal ptr @cff_index_get_string(ptr noundef %0, i32 noundef %1) #0 {
  %3 = alloca ptr, align 8
  %4 = alloca i32, align 4
  store ptr %0, ptr %3, align 8
  store i32 %1, ptr %4, align 4
  %5 = load i32, ptr %4, align 4
  %6 = load ptr, ptr %3, align 8
  %7 = getelementptr inbounds %struct.CFF_FontRec_, ptr %6, i32 0, i32 22
  %8 = load i32, ptr %7, align 8
  %9 = icmp ult i32 %5, %8
  br i1 %9, label %10, label %18

10:                                               ; preds = %2
  %11 = load ptr, ptr %3, align 8
  %12 = getelementptr inbounds %struct.CFF_FontRec_, ptr %11, i32 0, i32 23
  %13 = load ptr, ptr %12, align 8
  %14 = load i32, ptr %4, align 4
  %15 = zext i32 %14 to i64
  %16 = getelementptr inbounds ptr, ptr %13, i64 %15
  %17 = load ptr, ptr %16, align 8
  br label %19

18:                                               ; preds = %2
  br label %19

19:                                               ; preds = %18, %10
  %20 = phi ptr [ %17, %10 ], [ null, %18 ]
  ret ptr %20
}

; Function Attrs: nounwind uwtable
define internal ptr @cff_index_get_sid_string(ptr noundef %0, i32 noundef %1) #0 {
  %3 = alloca ptr, align 8
  %4 = alloca ptr, align 8
  %5 = alloca i32, align 4
  store ptr %0, ptr %4, align 8
  store i32 %1, ptr %5, align 4
  %6 = load i32, ptr %5, align 4
  %7 = icmp eq i32 %6, 65535
  br i1 %7, label %8, label %9

8:                                                ; preds = %2
  store ptr null, ptr %3, align 8
  br label %31

9:                                                ; preds = %2
  %10 = load i32, ptr %5, align 4
  %11 = icmp ugt i32 %10, 390
  br i1 %11, label %12, label %17

12:                                               ; preds = %9
  %13 = load ptr, ptr %4, align 8
  %14 = load i32, ptr %5, align 4
  %15 = sub i32 %14, 391
  %16 = call ptr @cff_index_get_string(ptr noundef %13, i32 noundef %15)
  store ptr %16, ptr %3, align 8
  br label %31

17:                                               ; preds = %9
  %18 = load ptr, ptr %4, align 8
  %19 = getelementptr inbounds %struct.CFF_FontRec_, ptr %18, i32 0, i32 31
  %20 = load ptr, ptr %19, align 8
  %21 = icmp ne ptr %20, null
  br i1 %21, label %23, label %22

22:                                               ; preds = %17
  store ptr null, ptr %3, align 8
  br label %31

23:                                               ; preds = %17
  %24 = load ptr, ptr %4, align 8
  %25 = getelementptr inbounds %struct.CFF_FontRec_, ptr %24, i32 0, i32 31
  %26 = load ptr, ptr %25, align 8
  %27 = getelementptr inbounds %struct.FT_Service_PsCMapsRec_, ptr %26, i32 0, i32 5
  %28 = load ptr, ptr %27, align 8
  %29 = load i32, ptr %5, align 4
  %30 = call ptr %28(i32 noundef %29)
  store ptr %30, ptr %3, align 8
  br label %31

31:                                               ; preds = %23, %22, %12, %8
  %32 = load ptr, ptr %3, align 8
  ret ptr %32
}

; Function Attrs: nounwind uwtable
define internal i32 @cff_ps_get_font_extra(ptr noundef %0, ptr noundef %1) #0 {
  %3 = alloca ptr, align 8
  %4 = alloca ptr, align 8
  %5 = alloca ptr, align 8
  %6 = alloca ptr, align 8
  %7 = alloca i32, align 4
  %8 = alloca ptr, align 8
  %9 = alloca ptr, align 8
  %10 = alloca ptr, align 8
  %11 = alloca ptr, align 8
  %12 = alloca ptr, align 8
  %13 = alloca ptr, align 8
  %14 = alloca ptr, align 8
  store ptr %0, ptr %3, align 8
  store ptr %1, ptr %4, align 8
  %15 = load ptr, ptr %3, align 8
  store ptr %15, ptr %5, align 8
  %16 = load ptr, ptr %5, align 8
  %17 = getelementptr inbounds %struct.TT_FaceRec_, ptr %16, i32 0, i32 45
  %18 = getelementptr inbounds %struct.FT_Generic_, ptr %17, i32 0, i32 0
  %19 = load ptr, ptr %18, align 8
  store ptr %19, ptr %6, align 8
  store i32 0, ptr %7, align 4
  %20 = load ptr, ptr %6, align 8
  %21 = icmp ne ptr %20, null
  br i1 %21, label %22, label %134

22:                                               ; preds = %2
  %23 = load ptr, ptr %6, align 8
  %24 = getelementptr inbounds %struct.CFF_FontRec_, ptr %23, i32 0, i32 38
  %25 = load ptr, ptr %24, align 8
  %26 = icmp ne ptr %25, null
  br i1 %26, label %134, label %27

27:                                               ; preds = %22
  %28 = load ptr, ptr %6, align 8
  %29 = getelementptr inbounds %struct.CFF_FontRec_, ptr %28, i32 0, i32 26
  %30 = getelementptr inbounds %struct.CFF_SubFontRec_, ptr %29, i32 0, i32 0
  store ptr %30, ptr %8, align 8
  %31 = load ptr, ptr %3, align 8
  %32 = getelementptr inbounds %struct.FT_FaceRec_, ptr %31, i32 0, i32 25
  %33 = load ptr, ptr %32, align 8
  store ptr %33, ptr %9, align 8
  store ptr null, ptr %10, align 8
  %34 = load ptr, ptr %9, align 8
  %35 = call ptr @ft_mem_qalloc(ptr noundef %34, i64 noundef 2, ptr noundef %7)
  store ptr %35, ptr %10, align 8
  %36 = load i32, ptr %7, align 4
  %37 = icmp ne i32 %36, 0
  br i1 %37, label %38, label %39

38:                                               ; preds = %27
  br label %143

39:                                               ; preds = %27
  %40 = load ptr, ptr %10, align 8
  %41 = getelementptr inbounds %struct.PS_FontExtraRec_, ptr %40, i32 0, i32 0
  store i16 0, ptr %41, align 2
  %42 = load ptr, ptr %6, align 8
  %43 = load ptr, ptr %8, align 8
  %44 = getelementptr inbounds %struct.CFF_FontRecDictRec_, ptr %43, i32 0, i32 25
  %45 = load i32, ptr %44, align 8
  %46 = call ptr @cff_index_get_sid_string(ptr noundef %42, i32 noundef %45)
  store ptr %46, ptr %11, align 8
  %47 = load ptr, ptr %11, align 8
  %48 = icmp ne ptr %47, null
  br i1 %48, label %49, label %130

49:                                               ; preds = %39
  %50 = load ptr, ptr %11, align 8
  %51 = call ptr @strstr(ptr noundef %50, ptr noundef @.str.13) #5
  store ptr %51, ptr %12, align 8
  %52 = icmp ne ptr %51, null
  br i1 %52, label %53, label %129

53:                                               ; preds = %49
  %54 = load ptr, ptr %12, align 8
  %55 = getelementptr inbounds i8, ptr %54, i64 8
  %56 = getelementptr inbounds i8, ptr %55, i64 -1
  %57 = call ptr @strstr(ptr noundef %56, ptr noundef @.str.14) #5
  store ptr %57, ptr %13, align 8
  %58 = icmp ne ptr %57, null
  br i1 %58, label %59, label %129

59:                                               ; preds = %53
  %60 = load ptr, ptr %12, align 8
  %61 = getelementptr inbounds i8, ptr %60, i64 8
  %62 = getelementptr inbounds i8, ptr %61, i64 -1
  store ptr %62, ptr %14, align 8
  br label %63

63:                                               ; preds = %125, %59
  %64 = load ptr, ptr %14, align 8
  %65 = load ptr, ptr %13, align 8
  %66 = icmp ne ptr %64, %65
  br i1 %66, label %67, label %128

67:                                               ; preds = %63
  %68 = load ptr, ptr %14, align 8
  %69 = load i8, ptr %68, align 1
  %70 = sext i8 %69 to i32
  %71 = icmp sge i32 %70, 48
  br i1 %71, label %72, label %105

72:                                               ; preds = %67
  %73 = load ptr, ptr %14, align 8
  %74 = load i8, ptr %73, align 1
  %75 = sext i8 %74 to i32
  %76 = icmp sle i32 %75, 57
  br i1 %76, label %77, label %105

77:                                               ; preds = %72
  %78 = load ptr, ptr %10, align 8
  %79 = getelementptr inbounds %struct.PS_FontExtraRec_, ptr %78, i32 0, i32 0
  %80 = load i16, ptr %79, align 2
  %81 = zext i16 %80 to i32
  %82 = icmp sge i32 %81, 6552
  br i1 %82, label %83, label %86

83:                                               ; preds = %77
  %84 = load ptr, ptr %10, align 8
  %85 = getelementptr inbounds %struct.PS_FontExtraRec_, ptr %84, i32 0, i32 0
  store i16 0, ptr %85, align 2
  br label %128

86:                                               ; preds = %77
  %87 = load ptr, ptr %10, align 8
  %88 = getelementptr inbounds %struct.PS_FontExtraRec_, ptr %87, i32 0, i32 0
  %89 = load i16, ptr %88, align 2
  %90 = zext i16 %89 to i32
  %91 = mul nsw i32 %90, 10
  %92 = trunc i32 %91 to i16
  store i16 %92, ptr %88, align 2
  %93 = load ptr, ptr %14, align 8
  %94 = load i8, ptr %93, align 1
  %95 = sext i8 %94 to i32
  %96 = sub nsw i32 %95, 48
  %97 = trunc i32 %96 to i16
  %98 = zext i16 %97 to i32
  %99 = load ptr, ptr %10, align 8
  %100 = getelementptr inbounds %struct.PS_FontExtraRec_, ptr %99, i32 0, i32 0
  %101 = load i16, ptr %100, align 2
  %102 = zext i16 %101 to i32
  %103 = add nsw i32 %102, %98
  %104 = trunc i32 %103 to i16
  store i16 %104, ptr %100, align 2
  br label %124

105:                                              ; preds = %72, %67
  %106 = load ptr, ptr %14, align 8
  %107 = load i8, ptr %106, align 1
  %108 = sext i8 %107 to i32
  %109 = icmp ne i32 %108, 32
  br i1 %109, label %110, label %123

110:                                              ; preds = %105
  %111 = load ptr, ptr %14, align 8
  %112 = load i8, ptr %111, align 1
  %113 = sext i8 %112 to i32
  %114 = icmp ne i32 %113, 10
  br i1 %114, label %115, label %123

115:                                              ; preds = %110
  %116 = load ptr, ptr %14, align 8
  %117 = load i8, ptr %116, align 1
  %118 = sext i8 %117 to i32
  %119 = icmp ne i32 %118, 13
  br i1 %119, label %120, label %123

120:                                              ; preds = %115
  %121 = load ptr, ptr %10, align 8
  %122 = getelementptr inbounds %struct.PS_FontExtraRec_, ptr %121, i32 0, i32 0
  store i16 0, ptr %122, align 2
  br label %128

123:                                              ; preds = %115, %110, %105
  br label %124

124:                                              ; preds = %123, %86
  br label %125

125:                                              ; preds = %124
  %126 = load ptr, ptr %14, align 8
  %127 = getelementptr inbounds i8, ptr %126, i32 1
  store ptr %127, ptr %14, align 8
  br label %63, !llvm.loop !17

128:                                              ; preds = %120, %83, %63
  br label %129

129:                                              ; preds = %128, %53, %49
  br label %130

130:                                              ; preds = %129, %39
  %131 = load ptr, ptr %10, align 8
  %132 = load ptr, ptr %6, align 8
  %133 = getelementptr inbounds %struct.CFF_FontRec_, ptr %132, i32 0, i32 38
  store ptr %131, ptr %133, align 8
  br label %134

134:                                              ; preds = %130, %22, %2
  %135 = load ptr, ptr %6, align 8
  %136 = icmp ne ptr %135, null
  br i1 %136, label %137, label %142

137:                                              ; preds = %134
  %138 = load ptr, ptr %4, align 8
  %139 = load ptr, ptr %6, align 8
  %140 = getelementptr inbounds %struct.CFF_FontRec_, ptr %139, i32 0, i32 38
  %141 = load ptr, ptr %140, align 8
  call void @llvm.memcpy.p0.p0.i64(ptr align 2 %138, ptr align 2 %141, i64 2, i1 false)
  br label %142

142:                                              ; preds = %137, %134
  br label %143

143:                                              ; preds = %142, %38
  %144 = load i32, ptr %7, align 4
  ret i32 %144
}