; Function Attrs: nounwind uwtable
define internal i32 @cff_ps_get_font_extra(ptr nocapture noundef readonly %0, ptr nocapture noundef writeonly %1) #4 {
  %3 = alloca i32, align 4
  %4 = getelementptr inbounds i8, ptr %0, i64 1168
  %5 = load ptr, ptr %4, align 8
  store i32 0, ptr %3, align 4
  %.not = icmp eq ptr %5, null
  br i1 %.not, label %.critedge, label %6

6:                                                ; preds = %2
  %7 = getelementptr inbounds i8, ptr %5, i64 5048
  %8 = load ptr, ptr %7, align 8
  %.not40 = icmp eq ptr %8, null
  br i1 %.not40, label %9, label %57

9:                                                ; preds = %6
  %10 = getelementptr inbounds i8, ptr %0, i64 184
  %11 = load ptr, ptr %10, align 8
  %12 = call ptr @ft_mem_qalloc(ptr noundef %11, i64 noundef 2, ptr noundef nonnull %3) #20
  %13 = load i32, ptr %3, align 4
  %.not41 = icmp eq i32 %13, 0
  br i1 %.not41, label %14, label %.critedge

14:                                               ; preds = %9
  store i16 0, ptr %12, align 2
  %15 = getelementptr inbounds i8, ptr %5, i64 1864
  %16 = load i32, ptr %15, align 8
  %17 = icmp eq i32 %16, 65535
  br i1 %17, label %cff_index_get_sid_string.exit.thread, label %18

18:                                               ; preds = %14
  %19 = icmp ugt i32 %16, 390
  br i1 %19, label %20, label %31

20:                                               ; preds = %18
  %21 = add i32 %16, -391
  %22 = getelementptr inbounds i8, ptr %5, i64 1608
  %23 = load i32, ptr %22, align 8
  %24 = icmp ugt i32 %23, %21
  br i1 %24, label %25, label %cff_index_get_sid_string.exit.thread

25:                                               ; preds = %20
  %26 = getelementptr inbounds i8, ptr %5, i64 1616
  %27 = load ptr, ptr %26, align 8
  %28 = zext i32 %21 to i64
  %29 = getelementptr inbounds ptr, ptr %27, i64 %28
  %30 = load ptr, ptr %29, align 8
  br label %cff_index_get_sid_string.exit

31:                                               ; preds = %18
  %32 = getelementptr inbounds i8, ptr %5, i64 4960
  %33 = load ptr, ptr %32, align 8
  %.not.i = icmp eq ptr %33, null
  br i1 %.not.i, label %cff_index_get_sid_string.exit.thread, label %34

34:                                               ; preds = %31
  %35 = getelementptr inbounds i8, ptr %33, i64 40
  %36 = load ptr, ptr %35, align 8
  %37 = call ptr %36(i32 noundef %16) #20
  br label %cff_index_get_sid_string.exit

cff_index_get_sid_string.exit:                    ; preds = %25, %34
  %.0.i = phi ptr [ %37, %34 ], [ %30, %25 ]
  %.not42 = icmp eq ptr %.0.i, null
  br i1 %.not42, label %cff_index_get_sid_string.exit.thread, label %38

38:                                               ; preds = %cff_index_get_sid_string.exit
  %39 = call ptr @strstr(ptr noundef nonnull dereferenceable(1) %.0.i, ptr noundef nonnull dereferenceable(1) @.str.13) #21
  %.not43 = icmp eq ptr %39, null
  br i1 %.not43, label %cff_index_get_sid_string.exit.thread, label %40

40:                                               ; preds = %38
  %41 = getelementptr inbounds i8, ptr %39, i64 7
  %42 = call ptr @strstr(ptr noundef nonnull dereferenceable(1) %41, ptr noundef nonnull dereferenceable(1) @.str.14) #21
  %.not44 = icmp eq ptr %42, null
  %.not4551 = icmp eq ptr %41, %42
  %or.cond53 = or i1 %.not44, %.not4551
  br i1 %or.cond53, label %cff_index_get_sid_string.exit.thread, label %.lr.ph

.lr.ph:                                           ; preds = %40, %55
  %.052 = phi ptr [ %56, %55 ], [ %41, %40 ]
  %43 = load i8, ptr %.052, align 1
  %44 = add i8 %43, -48
  %or.cond = icmp ult i8 %44, 10
  br i1 %or.cond, label %45, label %54

45:                                               ; preds = %.lr.ph
  %46 = load i16, ptr %12, align 2
  %47 = icmp ugt i16 %46, 6551
  br i1 %47, label %cff_index_get_sid_string.exit.thread.sink.split, label %48

48:                                               ; preds = %45
  %49 = mul nuw i16 %46, 10
  store i16 %49, ptr %12, align 2
  %50 = load i8, ptr %.052, align 1
  %51 = sext i8 %50 to i16
  %52 = add i16 %49, -48
  %53 = add i16 %52, %51
  store i16 %53, ptr %12, align 2
  br label %55

54:                                               ; preds = %.lr.ph
  switch i8 %43, label %cff_index_get_sid_string.exit.thread.sink.split [
    i8 32, label %55
    i8 10, label %55
    i8 13, label %55
  ]

55:                                               ; preds = %54, %54, %54, %48
  %56 = getelementptr inbounds i8, ptr %.052, i64 1
  %.not45 = icmp eq ptr %56, %42
  br i1 %.not45, label %cff_index_get_sid_string.exit.thread, label %.lr.ph, !llvm.loop !20

cff_index_get_sid_string.exit.thread.sink.split:  ; preds = %54, %45
  store i16 0, ptr %12, align 2
  br label %cff_index_get_sid_string.exit.thread

cff_index_get_sid_string.exit.thread:             ; preds = %55, %cff_index_get_sid_string.exit.thread.sink.split, %20, %31, %14, %38, %40, %cff_index_get_sid_string.exit
  store ptr %12, ptr %7, align 8
  %.pre.pre = load i32, ptr %3, align 4
  br label %57

57:                                               ; preds = %6, %cff_index_get_sid_string.exit.thread
  %.pre = phi i32 [ 0, %6 ], [ %.pre.pre, %cff_index_get_sid_string.exit.thread ]
  %58 = phi ptr [ %8, %6 ], [ %12, %cff_index_get_sid_string.exit.thread ]
  %59 = load i16, ptr %58, align 2
  store i16 %59, ptr %1, align 2
  br label %.critedge

.critedge:                                        ; preds = %2, %57, %9
  %60 = phi i32 [ 0, %2 ], [ %.pre, %57 ], [ %13, %9 ]
  ret i32 %60
}